target datalayout = "e-m:e-p270:32:32-p271:32:32-p272:64:64-i64:64-i128:128-f80:128-n8:16:32:64-S128"
target triple = "x86_64-pc-linux-gnu"

%struct.CharRange = type { i32, i32, ptr, ptr, ptr }

; Function Attrs: nounwind uwtable
define internal i32 @max_int(i32 noundef %0, i32 noundef %1) #0 {
  %3 = alloca i32, align 4
  %4 = alloca i32, align 4
  %5 = alloca i32, align 4
  store i32 %0, ptr %4, align 4
  store i32 %1, ptr %5, align 4
  %6 = load i32, ptr %4, align 4
  %7 = load i32, ptr %5, align 4
  %8 = icmp sgt i32 %6, %7
  br i1 %8, label %9, label %11

9:                                                ; preds = %2
  %10 = load i32, ptr %4, align 4
  store i32 %10, ptr %3, align 4
  br label %13

11:                                               ; preds = %2
  %12 = load i32, ptr %5, align 4
  store i32 %12, ptr %3, align 4
  br label %13

13:                                               ; preds = %11, %9
  %14 = load i32, ptr %3, align 4
  ret i32 %14
}

; Function Attrs: nounwind uwtable
define dso_local i32 @cr_realloc(ptr noundef %0, i32 noundef %1) #0 {
  %3 = alloca i32, align 4
  %4 = alloca ptr, align 8
  %5 = alloca i32, align 4
  %6 = alloca i32, align 4
  %7 = alloca ptr, align 8
  store ptr %0, ptr %4, align 8
  store i32 %1, ptr %5, align 4
  %8 = load i32, ptr %5, align 4
  %9 = load ptr, ptr %4, align 8
  %10 = getelementptr inbounds %struct.CharRange, ptr %9, i32 0, i32 1
  %11 = load i32, ptr %10, align 4
  %12 = icmp sgt i32 %8, %11
  br i1 %12, label %13, label %44

13:                                               ; preds = %2
  %14 = load i32, ptr %5, align 4
  %15 = load ptr, ptr %4, align 8
  %16 = getelementptr inbounds %struct.CharRange, ptr %15, i32 0, i32 1
  %17 = load i32, ptr %16, align 4
  %18 = mul i32 %17, 3
  %19 = sdiv i32 %18, 2
  %20 = call i32 @max_int(i32 noundef %14, i32 noundef %19)
  store i32 %20, ptr %6, align 4
  %21 = load ptr, ptr %4, align 8
  %22 = getelementptr inbounds %struct.CharRange, ptr %21, i32 0, i32 4
  %23 = load ptr, ptr %22, align 8
  %24 = load ptr, ptr %4, align 8
  %25 = getelementptr inbounds %struct.CharRange, ptr %24, i32 0, i32 3
  %26 = load ptr, ptr %25, align 8
  %27 = load ptr, ptr %4, align 8
  %28 = getelementptr inbounds %struct.CharRange, ptr %27, i32 0, i32 2
  %29 = load ptr, ptr %28, align 8
  %30 = load i32, ptr %6, align 4
  %31 = sext i32 %30 to i64
  %32 = mul i64 %31, 4
  %33 = call ptr %23(ptr noundef %26, ptr noundef %29, i64 noundef %32)
  store ptr %33, ptr %7, align 8
  %34 = load ptr, ptr %7, align 8
  %35 = icmp ne ptr %34, null
  br i1 %35, label %37, label %36

36:                                               ; preds = %13
  store i32 -1, ptr %3, align 4
  br label %45

37:                                               ; preds = %13
  %38 = load ptr, ptr %7, align 8
  %39 = load ptr, ptr %4, align 8
  %40 = getelementptr inbounds %struct.CharRange, ptr %39, i32 0, i32 2
  store ptr %38, ptr %40, align 8
  %41 = load i32, ptr %6, align 4
  %42 = load ptr, ptr %4, align 8
  %43 = getelementptr inbounds %struct.CharRange, ptr %42, i32 0, i32 1
  store i32 %41, ptr %43, align 4
  br label %44

44:                                               ; preds = %37, %2
  store i32 0, ptr %3, align 4
  br label %45

45:                                               ; preds = %44, %36
  %46 = load i32, ptr %3, align 4
  ret i32 %46
}

; Function Attrs: nounwind uwtable
define internal i32 @cr_add_interval(ptr noundef %0, i32 noundef %1, i32 noundef %2) #0 {
  %4 = alloca i32, align 4
  %5 = alloca ptr, align 8
  %6 = alloca i32, align 4
  %7 = alloca i32, align 4
  store ptr %0, ptr %5, align 8
  store i32 %1, ptr %6, align 4
  store i32 %2, ptr %7, align 4
  %8 = load ptr, ptr %5, align 8
  %9 = getelementptr inbounds %struct.CharRange, ptr %8, i32 0, i32 0
  %10 = load i32, ptr %9, align 8
  %11 = add i32 %10, 2
  %12 = load ptr, ptr %5, align 8
  %13 = getelementptr inbounds %struct.CharRange, ptr %12, i32 0, i32 1
  %14 = load i32, ptr %13, align 4
  %15 = icmp sgt i32 %11, %14
  br i1 %15, label %16, label %26

16:                                               ; preds = %3
  %17 = load ptr, ptr %5, align 8
  %18 = load ptr, ptr %5, align 8
  %19 = getelementptr inbounds %struct.CharRange, ptr %18, i32 0, i32 0
  %20 = load i32, ptr %19, align 8
  %21 = add i32 %20, 2
  %22 = call i32 @cr_realloc(ptr noundef %17, i32 noundef %21)
  %23 = icmp ne i32 %22, 0
  br i1 %23, label %24, label %25

24:                                               ; preds = %16
  store i32 -1, ptr %4, align 4
  br label %47

25:                                               ; preds = %16
  br label %26

26:                                               ; preds = %25, %3
  %27 = load i32, ptr %6, align 4
  %28 = load ptr, ptr %5, align 8
  %29 = getelementptr inbounds %struct.CharRange, ptr %28, i32 0, i32 2
  %30 = load ptr, ptr %29, align 8
  %31 = load ptr, ptr %5, align 8
  %32 = getelementptr inbounds %struct.CharRange, ptr %31, i32 0, i32 0
  %33 = load i32, ptr %32, align 8
  %34 = add i32 %33, 1
  store i32 %34, ptr %32, align 8
  %35 = sext i32 %33 to i64
  %36 = getelementptr i32, ptr %30, i64 %35
  store i32 %27, ptr %36, align 4
  %37 = load i32, ptr %7, align 4
  %38 = load ptr, ptr %5, align 8
  %39 = getelementptr inbounds %struct.CharRange, ptr %38, i32 0, i32 2
  %40 = load ptr, ptr %39, align 8
  %41 = load ptr, ptr %5, align 8
  %42 = getelementptr inbounds %struct.CharRange, ptr %41, i32 0, i32 0
  %43 = load i32, ptr %42, align 8
  %44 = add i32 %43, 1
  store i32 %44, ptr %42, align 8
  %45 = sext i32 %43 to i64
  %46 = getelementptr i32, ptr %40, i64 %45
  store i32 %37, ptr %46, align 4
  store i32 0, ptr %4, align 4
  br label %47

47:                                               ; preds = %26, %24
  %48 = load i32, ptr %4, align 4
  ret i32 %48
}

; Function Attrs: nounwind uwtable
define internal i32 @unicode_prop1(ptr noundef %0, i32 noundef %1) #0 {
  %3 = alloca i32, align 4
  %4 = alloca ptr, align 8
  %5 = alloca i32, align 4
  %6 = alloca ptr, align 8
  %7 = alloca ptr, align 8
  %8 = alloca i32, align 4
  %9 = alloca i32, align 4
  %10 = alloca i32, align 4
  %11 = alloca i32, align 4
  store ptr %0, ptr %4, align 8
  store i32 %1, ptr %5, align 4
  %12 = load i32, ptr %5, align 4
  %13 = sext i32 %12 to i64
  %14 = getelementptr [50 x ptr], ptr @unicode_prop_table, i64 0, i64 %13
  %15 = load ptr, ptr %14, align 8
  store ptr %15, ptr %6, align 8
  %16 = load ptr, ptr %6, align 8
  %17 = load i32, ptr %5, align 4
  %18 = sext i32 %17 to i64
  %19 = getelementptr [50 x i16], ptr @unicode_prop_len_table, i64 0, i64 %18
  %20 = load i16, ptr %19, align 2
  %21 = zext i16 %20 to i32
  %22 = sext i32 %21 to i64
  %23 = getelementptr i8, ptr %16, i64 %22
  store ptr %23, ptr %7, align 8
  store i32 0, ptr %8, align 4
  store i32 0, ptr %11, align 4
  br label %24

24:                                               ; preds = %120, %2
  %25 = load ptr, ptr %6, align 8
  %26 = load ptr, ptr %7, align 8
  %27 = icmp ult ptr %25, %26
  br i1 %27, label %28, label %123

28:                                               ; preds = %24
  %29 = load i32, ptr %8, align 4
  store i32 %29, ptr %9, align 4
  %30 = load ptr, ptr %6, align 8
  %31 = getelementptr i8, ptr %30, i32 1
  store ptr %31, ptr %6, align 8
  %32 = load i8, ptr %30, align 1
  %33 = zext i8 %32 to i32
  store i32 %33, ptr %10, align 4
  %34 = load i32, ptr %10, align 4
  %35 = icmp ult i32 %34, 64
  br i1 %35, label %36, label %61

36:                                               ; preds = %28
  %37 = load i32, ptr %10, align 4
  %38 = lshr i32 %37, 3
  %39 = add i32 %38, 1
  %40 = load i32, ptr %8, align 4
  %41 = add i32 %40, %39
  store i32 %41, ptr %8, align 4
  %42 = load i32, ptr %11, align 4
  %43 = icmp ne i32 %42, 0
  br i1 %43, label %44, label %52

44:                                               ; preds = %36
  %45 = load ptr, ptr %4, align 8
  %46 = load i32, ptr %9, align 4
  %47 = load i32, ptr %8, align 4
  %48 = call i32 @cr_add_interval(ptr noundef %45, i32 noundef %46, i32 noundef %47)
  %49 = icmp ne i32 %48, 0
  br i1 %49, label %50, label %51

50:                                               ; preds = %44
  store i32 -1, ptr %3, align 4
  br label %124

51:                                               ; preds = %44
  br label %52

52:                                               ; preds = %51, %36
  %53 = load i32, ptr %11, align 4
  %54 = xor i32 %53, 1
  store i32 %54, ptr %11, align 4
  %55 = load i32, ptr %8, align 4
  store i32 %55, ptr %9, align 4
  %56 = load i32, ptr %10, align 4
  %57 = and i32 %56, 7
  %58 = add i32 %57, 1
  %59 = load i32, ptr %8, align 4
  %60 = add i32 %59, %58
  store i32 %60, ptr %8, align 4
  br label %109

61:                                               ; preds = %28
  %62 = load i32, ptr %10, align 4
  %63 = icmp uge i32 %62, 128
  br i1 %63, label %64, label %70

64:                                               ; preds = %61
  %65 = load i32, ptr %10, align 4
  %66 = sub i32 %65, 128
  %67 = add i32 %66, 1
  %68 = load i32, ptr %8, align 4
  %69 = add i32 %68, %67
  store i32 %69, ptr %8, align 4
  br label %108

70:                                               ; preds = %61
  %71 = load i32, ptr %10, align 4
  %72 = icmp ult i32 %71, 96
  br i1 %72, label %73, label %87

73:                                               ; preds = %70
  %74 = load i32, ptr %10, align 4
  %75 = sub i32 %74, 64
  %76 = shl i32 %75, 8
  %77 = load ptr, ptr %6, align 8
  %78 = getelementptr i8, ptr %77, i64 0
  %79 = load i8, ptr %78, align 1
  %80 = zext i8 %79 to i32
  %81 = or i32 %76, %80
  %82 = add i32 %81, 1
  %83 = load i32, ptr %8, align 4
  %84 = add i32 %83, %82
  store i32 %84, ptr %8, align 4
  %85 = load ptr, ptr %6, align 8
  %86 = getelementptr i8, ptr %85, i32 1
  store ptr %86, ptr %6, align 8
  br label %107

87:                                               ; preds = %70
  %88 = load i32, ptr %10, align 4
  %89 = sub i32 %88, 96
  %90 = shl i32 %89, 16
  %91 = load ptr, ptr %6, align 8
  %92 = getelementptr i8, ptr %91, i64 0
  %93 = load i8, ptr %92, align 1
  %94 = zext i8 %93 to i32
  %95 = shl i32 %94, 8
  %96 = or i32 %90, %95
  %97 = load ptr, ptr %6, align 8
  %98 = getelementptr i8, ptr %97, i64 1
  %99 = load i8, ptr %98, align 1
  %100 = zext i8 %99 to i32
  %101 = or i32 %96, %100
  %102 = add i32 %101, 1
  %103 = load i32, ptr %8, align 4
  %104 = add i32 %103, %102
  store i32 %104, ptr %8, align 4
  %105 = load ptr, ptr %6, align 8
  %106 = getelementptr i8, ptr %105, i64 2
  store ptr %106, ptr %6, align 8
  br label %107

107:                                              ; preds = %87, %73
  br label %108

108:                                              ; preds = %107, %64
  br label %109

109:                                              ; preds = %108, %52
  %110 = load i32, ptr %11, align 4
  %111 = icmp ne i32 %110, 0
  br i1 %111, label %112, label %120

112:                                              ; preds = %109
  %113 = load ptr, ptr %4, align 8
  %114 = load i32, ptr %9, align 4
  %115 = load i32, ptr %8, align 4
  %116 = call i32 @cr_add_interval(ptr noundef %113, i32 noundef %114, i32 noundef %115)
  %117 = icmp ne i32 %116, 0
  br i1 %117, label %118, label %119

118:                                              ; preds = %112
  store i32 -1, ptr %3, align 4
  br label %124

119:                                              ; preds = %112
  br label %120

120:                                              ; preds = %119, %109
  %121 = load i32, ptr %11, align 4
  %122 = xor i32 %121, 1
  store i32 %122, ptr %11, align 4
  br label %24, !llvm.loop !34

123:                                              ; preds = %24
  store i32 0, ptr %3, align 4
  br label %124

124:                                              ; preds = %123, %118, %50
  %125 = load i32, ptr %3, align 4
  ret i32 %125
}