; Function Attrs: nounwind uwtable
define internal fastcc noundef i32 @unicode_prop1(ptr nocapture noundef %0, i32 noundef %1) unnamed_addr #5 {
  %3 = sext i32 %1 to i64
  %4 = getelementptr [50 x ptr], ptr @unicode_prop_table, i64 0, i64 %3
  %5 = load ptr, ptr %4, align 8
  %6 = getelementptr [50 x i16], ptr @unicode_prop_len_table, i64 0, i64 %3
  %7 = load i16, ptr %6, align 2
  %8 = zext i16 %7 to i64
  %9 = getelementptr i8, ptr %5, i64 %8
  %10 = icmp ult ptr %5, %9
  br i1 %10, label %.lr.ph, label %cr_add_interval.exit

.lr.ph:                                           ; preds = %2
  %11 = getelementptr inbounds i8, ptr %0, i64 4
  %.phi.trans.insert.i = getelementptr inbounds i8, ptr %0, i64 8
  %12 = getelementptr inbounds i8, ptr %0, i64 24
  %13 = getelementptr inbounds i8, ptr %0, i64 16
  br label %14

14:                                               ; preds = %.lr.ph, %103
  %.062 = phi i32 [ 0, %.lr.ph ], [ %104, %103 ]
  %.03861 = phi i32 [ 0, %.lr.ph ], [ %.139, %103 ]
  %.04060 = phi ptr [ %5, %.lr.ph ], [ %.141, %103 ]
  %15 = getelementptr i8, ptr %.04060, i64 1
  %16 = load i8, ptr %.04060, align 1
  %17 = zext i8 %16 to i32
  %18 = icmp ult i8 %16, 64
  br i1 %18, label %19, label %52

19:                                               ; preds = %14
  %20 = lshr i32 %17, 3
  %21 = add i32 %.03861, 1
  %22 = add i32 %21, %20
  %.not = icmp eq i32 %.062, 0
  br i1 %.not, label %47, label %23

23:                                               ; preds = %19
  %24 = load i32, ptr %0, align 8
  %25 = add i32 %24, 2
  %26 = load i32, ptr %11, align 4
  %27 = icmp sgt i32 %25, %26
  br i1 %27, label %28, label %._crit_edge.i

._crit_edge.i:                                    ; preds = %23
  %.pre.i = load ptr, ptr %.phi.trans.insert.i, align 8
  br label %cr_add_interval.exit.thread

28:                                               ; preds = %23
  %29 = mul i32 %26, 3
  %30 = sdiv i32 %29, 2
  %..i.i.i = tail call noundef i32 @llvm.smax.i32(i32 %25, i32 %30)
  %31 = load ptr, ptr %12, align 8
  %32 = load ptr, ptr %13, align 8
  %33 = load ptr, ptr %.phi.trans.insert.i, align 8
  %34 = sext i32 %..i.i.i to i64
  %35 = shl nsw i64 %34, 2
  %36 = tail call ptr %31(ptr noundef %32, ptr noundef %33, i64 noundef %35) #20
  %.not.i.i = icmp eq ptr %36, null
  br i1 %.not.i.i, label %cr_add_interval.exit, label %cr_realloc.exit.thread.i

cr_realloc.exit.thread.i:                         ; preds = %28
  store ptr %36, ptr %.phi.trans.insert.i, align 8
  store i32 %..i.i.i, ptr %11, align 4
  %.pre13.i = load i32, ptr %0, align 8
  br label %cr_add_interval.exit.thread

cr_add_interval.exit.thread:                      ; preds = %._crit_edge.i, %cr_realloc.exit.thread.i
  %37 = phi i32 [ %24, %._crit_edge.i ], [ %.pre13.i, %cr_realloc.exit.thread.i ]
  %38 = phi ptr [ %.pre.i, %._crit_edge.i ], [ %36, %cr_realloc.exit.thread.i ]
  %39 = add i32 %37, 1
  store i32 %39, ptr %0, align 8
  %40 = sext i32 %37 to i64
  %41 = getelementptr i32, ptr %38, i64 %40
  store i32 %.03861, ptr %41, align 4
  %42 = load ptr, ptr %.phi.trans.insert.i, align 8
  %43 = load i32, ptr %0, align 8
  %44 = add i32 %43, 1
  store i32 %44, ptr %0, align 8
  %45 = sext i32 %43 to i64
  %46 = getelementptr i32, ptr %42, i64 %45
  store i32 %22, ptr %46, align 4
  br label %47

47:                                               ; preds = %cr_add_interval.exit.thread, %19
  %48 = xor i32 %.062, 1
  %49 = and i32 %17, 7
  %50 = add nuw nsw i32 %49, 1
  %51 = add i32 %50, %22
  br label %78

52:                                               ; preds = %14
  %53 = icmp slt i8 %16, 0
  br i1 %53, label %54, label %57

54:                                               ; preds = %52
  %55 = add i32 %.03861, -127
  %56 = add i32 %55, %17
  br label %78

57:                                               ; preds = %52
  %58 = icmp ult i8 %16, 96
  %59 = load i8, ptr %15, align 1
  %60 = zext i8 %59 to i32
  br i1 %58, label %61, label %67

61:                                               ; preds = %57
  %62 = shl nuw nsw i32 %17, 8
  %63 = add i32 %.03861, -16383
  %64 = add i32 %63, %62
  %65 = add i32 %64, %60
  %66 = getelementptr i8, ptr %.04060, i64 2
  br label %78

67:                                               ; preds = %57
  %68 = shl nuw nsw i32 %17, 16
  %69 = shl nuw nsw i32 %60, 8
  %70 = getelementptr i8, ptr %.04060, i64 2
  %71 = load i8, ptr %70, align 1
  %72 = zext i8 %71 to i32
  %73 = add i32 %.03861, -6291455
  %74 = add i32 %73, %68
  %75 = add i32 %74, %69
  %76 = add i32 %75, %72
  %77 = getelementptr i8, ptr %.04060, i64 3
  br label %78

78:                                               ; preds = %54, %67, %61, %47
  %.141 = phi ptr [ %15, %47 ], [ %15, %54 ], [ %66, %61 ], [ %77, %67 ]
  %.139 = phi i32 [ %51, %47 ], [ %56, %54 ], [ %65, %61 ], [ %76, %67 ]
  %.037 = phi i32 [ %22, %47 ], [ %.03861, %54 ], [ %.03861, %61 ], [ %.03861, %67 ]
  %.1 = phi i32 [ %48, %47 ], [ %.062, %54 ], [ %.062, %61 ], [ %.062, %67 ]
  %.not45 = icmp eq i32 %.1, 0
  br i1 %.not45, label %103, label %79

79:                                               ; preds = %78
  %80 = load i32, ptr %0, align 8
  %81 = add i32 %80, 2
  %82 = load i32, ptr %11, align 4
  %83 = icmp sgt i32 %81, %82
  br i1 %83, label %84, label %._crit_edge.i47

._crit_edge.i47:                                  ; preds = %79
  %.pre.i49 = load ptr, ptr %.phi.trans.insert.i, align 8
  br label %cr_add_interval.exit55.thread

84:                                               ; preds = %79
  %85 = mul i32 %82, 3
  %86 = sdiv i32 %85, 2
  %..i.i.i51 = tail call noundef i32 @llvm.smax.i32(i32 %81, i32 %86)
  %87 = load ptr, ptr %12, align 8
  %88 = load ptr, ptr %13, align 8
  %89 = load ptr, ptr %.phi.trans.insert.i, align 8
  %90 = sext i32 %..i.i.i51 to i64
  %91 = shl nsw i64 %90, 2
  %92 = tail call ptr %87(ptr noundef %88, ptr noundef %89, i64 noundef %91) #20
  %.not.i.i52 = icmp eq ptr %92, null
  br i1 %.not.i.i52, label %cr_add_interval.exit, label %cr_realloc.exit.thread.i53

cr_realloc.exit.thread.i53:                       ; preds = %84
  store ptr %92, ptr %.phi.trans.insert.i, align 8
  store i32 %..i.i.i51, ptr %11, align 4
  %.pre13.i54 = load i32, ptr %0, align 8
  br label %cr_add_interval.exit55.thread

cr_add_interval.exit55.thread:                    ; preds = %._crit_edge.i47, %cr_realloc.exit.thread.i53
  %93 = phi i32 [ %80, %._crit_edge.i47 ], [ %.pre13.i54, %cr_realloc.exit.thread.i53 ]
  %94 = phi ptr [ %.pre.i49, %._crit_edge.i47 ], [ %92, %cr_realloc.exit.thread.i53 ]
  %95 = add i32 %93, 1
  store i32 %95, ptr %0, align 8
  %96 = sext i32 %93 to i64
  %97 = getelementptr i32, ptr %94, i64 %96
  store i32 %.037, ptr %97, align 4
  %98 = load ptr, ptr %.phi.trans.insert.i, align 8
  %99 = load i32, ptr %0, align 8
  %100 = add i32 %99, 1
  store i32 %100, ptr %0, align 8
  %101 = sext i32 %99 to i64
  %102 = getelementptr i32, ptr %98, i64 %101
  store i32 %.139, ptr %102, align 4
  br label %103

103:                                              ; preds = %cr_add_interval.exit55.thread, %78
  %104 = xor i32 %.1, 1
  %105 = icmp ult ptr %.141, %9
  br i1 %105, label %14, label %cr_add_interval.exit, !llvm.loop !40

cr_add_interval.exit:                             ; preds = %103, %28, %84, %2
  %.036 = phi i32 [ 0, %2 ], [ -1, %84 ], [ -1, %28 ], [ 0, %103 ]
  ret i32 %.036
}